target datalayout = "e-m:e-p270:32:32-p271:32:32-p272:64:64-i64:64-i128:128-f80:128-n8:16:32:64-S128"
target triple = "x86_64-pc-linux-gnu"

%struct.bb_state = type { %struct.bb_config, ptr, ptr, ptr, %union.pthread_mutex_t, i64, i64, ptr, i64, i64, i64, ptr, %union.pthread_cond_t, i8, %union.pthread_mutex_t, i64, i32, i32, i64, i64 }
%struct.bb_config = type { ptr, ptr, ptr, ptr, ptr, ptr, ptr, ptr, i32, ptr, ptr, i64, i32, ptr, i32, i32, i32, i32, ptr, ptr, ptr, ptr, i32 }
%union.pthread_cond_t = type { %struct.__pthread_cond_s }
%struct.__pthread_cond_s = type { %union.__atomic_wide_counter, %union.__atomic_wide_counter, [2 x i32], [2 x i32], i32, i32, [2 x i32] }
%union.__atomic_wide_counter = type { i64 }
%union.pthread_mutex_t = type { %struct.__pthread_mutex_s }
%struct.__pthread_mutex_s = type { i32, i32, i32, i32, i32, i16, i16, %struct.__pthread_internal_list }
%struct.__pthread_internal_list = type { ptr, ptr }
%struct.burst_buffer_pool_t = type { i64, ptr, i64, i64, i64 }

@plugin_type = external constant [0 x i8], align 1
@.str.110 = private unnamed_addr constant [36 x i8] c"%s: %s: Invalid pool requested (%s)\00", align 1
@__func__.bb_valid_pool_test = private unnamed_addr constant [19 x i8] c"bb_valid_pool_test\00", align 1

; Function Attrs: nounwind uwtable
define dso_local zeroext i1 @bb_valid_pool_test(ptr noundef %0, ptr noundef %1) #0 {
  %3 = alloca i1, align 1
  %4 = alloca ptr, align 8
  %5 = alloca ptr, align 8
  %6 = alloca ptr, align 8
  %7 = alloca i32, align 4
  %8 = alloca i32, align 4
  store ptr %0, ptr %4, align 8
  store ptr %1, ptr %5, align 8
  call void @llvm.lifetime.start.p0(i64 8, ptr %6) #9
  call void @llvm.lifetime.start.p0(i64 4, ptr %7) #9
  %9 = load ptr, ptr %5, align 8
  %10 = icmp ne ptr %9, null
  br i1 %10, label %12, label %11

11:                                               ; preds = %2
  store i1 true, ptr %3, align 1
  store i32 1, ptr %8, align 4
  br label %59

12:                                               ; preds = %2
  %13 = load ptr, ptr %5, align 8
  %14 = load ptr, ptr %4, align 8
  %15 = getelementptr inbounds nuw %struct.bb_state, ptr %14, i32 0, i32 0
  %16 = getelementptr inbounds nuw %struct.bb_config, ptr %15, i32 0, i32 3
  %17 = load ptr, ptr %16, align 8
  %18 = call i32 @xstrcmp(ptr noundef %13, ptr noundef %17)
  %19 = icmp ne i32 %18, 0
  br i1 %19, label %21, label %20

20:                                               ; preds = %12
  store i1 true, ptr %3, align 1
  store i32 1, ptr %8, align 4
  br label %59

21:                                               ; preds = %12
  %22 = load ptr, ptr %4, align 8
  %23 = getelementptr inbounds nuw %struct.bb_state, ptr %22, i32 0, i32 0
  %24 = getelementptr inbounds nuw %struct.bb_config, ptr %23, i32 0, i32 13
  %25 = load ptr, ptr %24, align 8
  store ptr %25, ptr %6, align 8
  store i32 0, ptr %7, align 4
  br label %26

26:                                               ; preds = %42, %21
  %27 = load i32, ptr %7, align 4
  %28 = load ptr, ptr %4, align 8
  %29 = getelementptr inbounds nuw %struct.bb_state, ptr %28, i32 0, i32 0
  %30 = getelementptr inbounds nuw %struct.bb_config, ptr %29, i32 0, i32 12
  %31 = load i32, ptr %30, align 8
  %32 = icmp ult i32 %27, %31
  br i1 %32, label %33, label %47

33:                                               ; preds = %26
  %34 = load ptr, ptr %5, align 8
  %35 = load ptr, ptr %6, align 8
  %36 = getelementptr inbounds nuw %struct.burst_buffer_pool_t, ptr %35, i32 0, i32 1
  %37 = load ptr, ptr %36, align 8
  %38 = call i32 @xstrcmp(ptr noundef %34, ptr noundef %37)
  %39 = icmp ne i32 %38, 0
  br i1 %39, label %41, label %40

40:                                               ; preds = %33
  store i1 true, ptr %3, align 1
  store i32 1, ptr %8, align 4
  br label %59

41:                                               ; preds = %33
  br label %42

42:                                               ; preds = %41
  %43 = load i32, ptr %7, align 4
  %44 = add nsw i32 %43, 1
  store i32 %44, ptr %7, align 4
  %45 = load ptr, ptr %6, align 8
  %46 = getelementptr inbounds nuw %struct.burst_buffer_pool_t, ptr %45, i32 1
  store ptr %46, ptr %6, align 8
  br label %26, !llvm.loop !68

47:                                               ; preds = %26
  br label %48

48:                                               ; preds = %47
  br label %49

49:                                               ; preds = %48
  %50 = call i32 @get_log_level()
  %51 = icmp sge i32 %50, 3
  br i1 %51, label %52, label %54

52:                                               ; preds = %49
  %53 = load ptr, ptr %5, align 8
  call void (i32, ptr, ...) @log_var(i32 noundef 3, ptr noundef @.str.110, ptr noundef @plugin_type, ptr noundef @__func__.bb_valid_pool_test, ptr noundef %53)
  br label %54

54:                                               ; preds = %52, %49
  br label %55

55:                                               ; preds = %54
  br label %56

56:                                               ; preds = %55
  br label %57

57:                                               ; preds = %56
  br label %58

58:                                               ; preds = %57
  store i1 false, ptr %3, align 1
  store i32 1, ptr %8, align 4
  br label %59

59:                                               ; preds = %58, %40, %20, %11
  call void @llvm.lifetime.end.p0(i64 4, ptr %7) #9
  call void @llvm.lifetime.end.p0(i64 8, ptr %6) #9
  %60 = load i1, ptr %3, align 1
  ret i1 %60
}