; Function Attrs: nounwind uwtable
define dso_local noundef zeroext i1 @bb_valid_pool_test(ptr noundef readonly captures(none) %0, ptr noundef %1) local_unnamed_addr #0 {
  %.not = icmp eq ptr %1, null
  br i1 %.not, label %.loopexit, label %3

3:                                                ; preds = %2
  %4 = getelementptr inbounds nuw i8, ptr %0, i64 24
  %5 = load ptr, ptr %4, align 8
  %6 = tail call i32 @xstrcmp(ptr noundef nonnull %1, ptr noundef %5) #17
  %.not14 = icmp eq i32 %6, 0
  br i1 %.not14, label %.loopexit, label %7

7:                                                ; preds = %3
  %8 = getelementptr inbounds nuw i8, ptr %0, i64 96
  %9 = load i32, ptr %8, align 8
  %.not18 = icmp eq i32 %9, 0
  br i1 %.not18, label %._crit_edge, label %.lr.ph.preheader

.lr.ph.preheader:                                 ; preds = %7
  %10 = getelementptr inbounds nuw i8, ptr %0, i64 104
  %11 = load ptr, ptr %10, align 8
  br label %.lr.ph

.lr.ph:                                           ; preds = %.lr.ph.preheader, %15
  %.017 = phi i32 [ %16, %15 ], [ 0, %.lr.ph.preheader ]
  %.01116 = phi ptr [ %17, %15 ], [ %11, %.lr.ph.preheader ]
  %12 = getelementptr inbounds nuw i8, ptr %.01116, i64 8
  %13 = load ptr, ptr %12, align 8
  %14 = tail call i32 @xstrcmp(ptr noundef nonnull %1, ptr noundef %13) #17
  %.not15 = icmp eq i32 %14, 0
  br i1 %.not15, label %.loopexit, label %15

15:                                               ; preds = %.lr.ph
  %16 = add nuw nsw i32 %.017, 1
  %17 = getelementptr inbounds nuw i8, ptr %.01116, i64 40
  %18 = load i32, ptr %8, align 8
  %19 = icmp ult i32 %16, %18
  br i1 %19, label %.lr.ph, label %._crit_edge, !llvm.loop !68

._crit_edge:                                      ; preds = %15, %7
  %20 = tail call i32 @get_log_level() #17
  %21 = icmp sgt i32 %20, 2
  br i1 %21, label %22, label %.loopexit

22:                                               ; preds = %._crit_edge
  tail call void (i32, ptr, ...) @log_var(i32 noundef 3, ptr noundef nonnull @.str.110, ptr noundef nonnull @plugin_type, ptr noundef nonnull @__func__.bb_valid_pool_test, ptr noundef nonnull %1) #17
  br label %.loopexit

.loopexit:                                        ; preds = %.lr.ph, %._crit_edge, %22, %3, %2
  %.012 = phi i1 [ true, %2 ], [ true, %3 ], [ false, %22 ], [ false, %._crit_edge ], [ true, %.lr.ph ]
  ret i1 %.012
}